; Function Attrs: nounwind uwtable
define hidden range(i32 -1, 1) i32 @cdf_read_user_stream(ptr noundef readonly captures(none) %0, ptr noundef readonly captures(none) %1, ptr noundef readonly captures(none) %2, ptr noundef readonly captures(none) %3, ptr noundef readonly captures(none) %4, ptr noundef readonly captures(none) %5, ptr noundef readonly captures(none) %6, ptr noundef captures(none) initializes((0, 8)) %7) local_unnamed_addr #7 {
  %9 = tail call i32 @cdf_find_stream(ptr noundef %5, ptr noundef %6, i32 noundef 2)
  %10 = icmp slt i32 %9, 1
  br i1 %10, label %11, label %12

11:                                               ; preds = %8
  tail call void @llvm.memset.p0.i64(ptr noundef nonnull align 8 dereferenceable(32) %7, i8 0, i64 32, i1 false)
  br label %cdf_read_sector_chain.exit

12:                                               ; preds = %8
  %13 = load ptr, ptr %5, align 8, !tbaa !35
  %14 = zext nneg i32 %9 to i64
  %15 = getelementptr %struct.cdf_directory_t, ptr %13, i64 %14
  %16 = getelementptr i8, ptr %15, i64 -16
  %17 = load i32, ptr %16, align 8, !tbaa !40
  %18 = getelementptr i8, ptr %15, i64 -12
  %19 = load i32, ptr %18, align 4, !tbaa !41
  %20 = zext i32 %19 to i64
  %21 = getelementptr inbounds nuw i8, ptr %1, i64 56
  %22 = load i32, ptr %21, align 8, !tbaa !29
  %23 = icmp ult i32 %19, %22
  br i1 %23, label %24, label %28

24:                                               ; preds = %12
  %25 = load ptr, ptr %4, align 8, !tbaa !4
  %.not.i = icmp eq ptr %25, null
  br i1 %.not.i, label %28, label %26

26:                                               ; preds = %24
  %27 = tail call i32 @cdf_read_short_sector_chain(ptr noundef nonnull readonly %1, ptr noundef readonly %3, ptr noundef nonnull readonly %4, i32 noundef %17, i64 noundef %20, ptr noundef %7)
  br label %cdf_read_sector_chain.exit

28:                                               ; preds = %24, %12
  %29 = tail call i32 @cdf_read_long_sector_chain(ptr noundef readonly %0, ptr noundef nonnull readonly %1, ptr noundef readonly %2, i32 noundef %17, i64 noundef %20, ptr noundef %7)
  br label %cdf_read_sector_chain.exit

cdf_read_sector_chain.exit:                       ; preds = %28, %26, %11
  %.0 = phi i32 [ -1, %11 ], [ %27, %26 ], [ %29, %28 ]
  ret i32 %.0
}